; Function Attrs: mustprogress uwtable
define noundef ptr @_ZNK6gmxapi17MpiContextManager12communicatorEv(ptr noundef nonnull readonly align 8 captures(none) dereferenceable(8) %0) local_unnamed_addr #0 align 2 personality ptr @__gxx_personality_v0 {
  %2 = load ptr, ptr %0, align 8, !tbaa !12
  %.not = icmp eq ptr %2, null
  br i1 %.not, label %3, label %8

3:                                                ; preds = %1
  %4 = tail call ptr @__cxa_allocate_exception(i64 40) #21
  invoke void @_ZN6gmxapi10UsageErrorCI2NS_14BasicExceptionIS0_EEEPKc(ptr noundef nonnull align 8 dereferenceable(40) %4, ptr noundef nonnull @.str.1)
          to label %5 unwind label %6

5:                                                ; preds = %3
  tail call void @__cxa_throw(ptr nonnull %4, ptr nonnull @_ZTIN6gmxapi10UsageErrorE, ptr nonnull @_ZN6gmxapi14BasicExceptionINS_10UsageErrorEED2Ev) #22
  unreachable

6:                                                ; preds = %3
  %7 = landingpad { ptr, i32 }
          cleanup
  tail call void @__cxa_free_exception(ptr nonnull %4) #21
  resume { ptr, i32 } %7

8:                                                ; preds = %1
  %9 = load ptr, ptr %2, align 8, !tbaa !7
  ret ptr %9
}